; Function Attrs: mustprogress uwtable
define void @_ZN5faiss15IndexBinaryFlat3addElPKh(ptr noundef nonnull align 8 dereferenceable(76) %0, i64 noundef %1, ptr noundef %2) unnamed_addr #2 align 2 {
  %4 = getelementptr inbounds i8, ptr %0, i64 32
  %5 = getelementptr inbounds i8, ptr %0, i64 40
  %6 = load ptr, ptr %5, align 8
  %7 = getelementptr inbounds i8, ptr %0, i64 12
  %8 = load i32, ptr %7, align 4
  %9 = sext i32 %8 to i64
  %10 = mul nsw i64 %9, %1
  %11 = getelementptr inbounds i8, ptr %2, i64 %10
  %12 = load ptr, ptr %4, align 8
  %13 = ptrtoint ptr %6 to i64
  %14 = ptrtoint ptr %12 to i64
  %15 = sub i64 %13, %14
  %16 = getelementptr inbounds i8, ptr %12, i64 %15
  tail call void @_ZNSt6vectorIhSaIhEE15_M_range_insertIPKhEEvN9__gnu_cxx17__normal_iteratorIPhS1_EET_S9_St20forward_iterator_tag(ptr noundef nonnull align 8 dereferenceable(24) %4, ptr %16, ptr noundef %2, ptr noundef %11)
  %17 = getelementptr inbounds i8, ptr %0, i64 16
  %18 = load i64, ptr %17, align 8
  %19 = add nsw i64 %18, %1
  store i64 %19, ptr %17, align 8
  ret void
}